target datalayout = "e-m:e-p270:32:32-p271:32:32-p272:64:64-i64:64-i128:128-f80:128-n8:16:32:64-S128"
target triple = "x86_64-pc-linux-gnu"

%struct._packet_info = type { ptr, ptr, i32, i32, %struct.nstime_t, %struct.nstime_t, %struct.nstime_t, i8, ptr, ptr, ptr, ptr, %struct._address, %struct._address, %struct._address, %struct._address, %struct._address, %struct._address, i32, ptr, i8, [3 x i8], %struct.anon, i32, i32, i32, i32, ptr, i8, ptr, ptr, i16, i16, i32, i32, i16, i32, i32, ptr, ptr, ptr, i8, i8, i16, i16, i16, i32, i16, i16, ptr, ptr, ptr, ptr, ptr, i32, i32 }
%struct.nstime_t = type { i64, i32 }
%struct._address = type { i32, i32, ptr, ptr }
%struct.anon = type { i8, [3 x i8] }

@hf_x11_reply = internal global i32 0, align 4
@hf_x11_reply_sequencenumber = internal global i32 0, align 4
@hf_x11_replylength = internal global i32 0, align 4
@hf_x11_unused = internal global i32 0, align 4
@hf_x11_damage_QueryVersion_reply_major_version = internal global i32 0, align 4
@hf_x11_damage_QueryVersion_reply_minor_version = internal global i32 0, align 4
@.str.14953 = private unnamed_addr constant [14 x i8] c"-QueryVersion\00", align 1
@.str.14960 = private unnamed_addr constant [25 x i8] c"%d (damage-QueryVersion)\00", align 1

; Function Attrs: null_pointer_is_valid sspstrong uwtable
define internal void @damageQueryVersion_Reply(ptr noundef %0, ptr noundef %1, ptr noundef %2, ptr noundef %3, i32 noundef %4) #1 {
  %6 = alloca ptr, align 8
  %7 = alloca ptr, align 8
  %8 = alloca ptr, align 8
  %9 = alloca ptr, align 8
  %10 = alloca i32, align 4
  %11 = alloca i32, align 4
  store ptr %0, ptr %6, align 8
  store ptr %1, ptr %7, align 8
  store ptr %2, ptr %8, align 8
  store ptr %3, ptr %9, align 8
  store i32 %4, ptr %10, align 4
  call void @llvm.lifetime.start.p0(i64 4, ptr %11) #11
  %12 = load ptr, ptr %7, align 8
  %13 = getelementptr inbounds nuw %struct._packet_info, ptr %12, i32 0, i32 1
  %14 = load ptr, ptr %13, align 8
  call void (ptr, i32, ptr, ...) @col_append_fstr(ptr noundef %14, i32 noundef 25, ptr noundef @.str.14953)
  %15 = load ptr, ptr %6, align 8
  %16 = load ptr, ptr %8, align 8
  %17 = load ptr, ptr %9, align 8
  %18 = load i32, ptr @hf_x11_reply, align 4
  %19 = load i32, ptr %10, align 4
  %20 = call i32 @field8(ptr noundef %15, ptr noundef %16, ptr noundef %17, i32 noundef %18, i32 noundef %19)
  %21 = load ptr, ptr %9, align 8
  %22 = load i32, ptr @hf_x11_unused, align 4
  %23 = load ptr, ptr %6, align 8
  %24 = load ptr, ptr %8, align 8
  %25 = load i32, ptr %24, align 4
  %26 = call ptr @proto_tree_add_item(ptr noundef %21, i32 noundef %22, ptr noundef %23, i32 noundef %25, i32 noundef 1, i32 noundef 0)
  %27 = load ptr, ptr %8, align 8
  %28 = load i32, ptr %27, align 4
  %29 = add i32 %28, 1
  store i32 %29, ptr %27, align 4
  %30 = load ptr, ptr %6, align 8
  %31 = load ptr, ptr %8, align 8
  %32 = load i32, ptr %31, align 4
  %33 = load i32, ptr %10, align 4
  %34 = call zeroext i16 @tvb_get_uint16(ptr noundef %30, i32 noundef %32, i32 noundef %33)
  %35 = zext i16 %34 to i32
  store i32 %35, ptr %11, align 4
  %36 = load ptr, ptr %9, align 8
  %37 = load i32, ptr @hf_x11_reply_sequencenumber, align 4
  %38 = load ptr, ptr %6, align 8
  %39 = load ptr, ptr %8, align 8
  %40 = load i32, ptr %39, align 4
  %41 = load i32, ptr %11, align 4
  %42 = load i32, ptr %11, align 4
  %43 = call ptr (ptr, i32, ptr, i32, i32, i32, ptr, ...) @proto_tree_add_uint_format_value(ptr noundef %36, i32 noundef %37, ptr noundef %38, i32 noundef %40, i32 noundef 2, i32 noundef %41, ptr noundef @.str.14960, i32 noundef %42)
  %44 = load ptr, ptr %8, align 8
  %45 = load i32, ptr %44, align 4
  %46 = add i32 %45, 2
  store i32 %46, ptr %44, align 4
  %47 = load ptr, ptr %9, align 8
  %48 = load i32, ptr @hf_x11_replylength, align 4
  %49 = load ptr, ptr %6, align 8
  %50 = load ptr, ptr %8, align 8
  %51 = load i32, ptr %50, align 4
  %52 = load i32, ptr %10, align 4
  %53 = call ptr @proto_tree_add_item(ptr noundef %47, i32 noundef %48, ptr noundef %49, i32 noundef %51, i32 noundef 4, i32 noundef %52)
  %54 = load ptr, ptr %8, align 8
  %55 = load i32, ptr %54, align 4
  %56 = add i32 %55, 4
  store i32 %56, ptr %54, align 4
  %57 = load ptr, ptr %9, align 8
  %58 = load i32, ptr @hf_x11_damage_QueryVersion_reply_major_version, align 4
  %59 = load ptr, ptr %6, align 8
  %60 = load ptr, ptr %8, align 8
  %61 = load i32, ptr %60, align 4
  %62 = load i32, ptr %10, align 4
  %63 = call ptr @proto_tree_add_item(ptr noundef %57, i32 noundef %58, ptr noundef %59, i32 noundef %61, i32 noundef 4, i32 noundef %62)
  %64 = load ptr, ptr %8, align 8
  %65 = load i32, ptr %64, align 4
  %66 = add i32 %65, 4
  store i32 %66, ptr %64, align 4
  %67 = load ptr, ptr %9, align 8
  %68 = load i32, ptr @hf_x11_damage_QueryVersion_reply_minor_version, align 4
  %69 = load ptr, ptr %6, align 8
  %70 = load ptr, ptr %8, align 8
  %71 = load i32, ptr %70, align 4
  %72 = load i32, ptr %10, align 4
  %73 = call ptr @proto_tree_add_item(ptr noundef %67, i32 noundef %68, ptr noundef %69, i32 noundef %71, i32 noundef 4, i32 noundef %72)
  %74 = load ptr, ptr %8, align 8
  %75 = load i32, ptr %74, align 4
  %76 = add i32 %75, 4
  store i32 %76, ptr %74, align 4
  %77 = load ptr, ptr %9, align 8
  %78 = load i32, ptr @hf_x11_unused, align 4
  %79 = load ptr, ptr %6, align 8
  %80 = load ptr, ptr %8, align 8
  %81 = load i32, ptr %80, align 4
  %82 = call ptr @proto_tree_add_item(ptr noundef %77, i32 noundef %78, ptr noundef %79, i32 noundef %81, i32 noundef 16, i32 noundef 0)
  %83 = load ptr, ptr %8, align 8
  %84 = load i32, ptr %83, align 4
  %85 = add i32 %84, 16
  store i32 %85, ptr %83, align 4
  call void @llvm.lifetime.end.p0(i64 4, ptr %11) #11
  ret void
}